; Function Attrs: mustprogress nofree nounwind uwtable
define noundef nonnull align 8 dereferenceable(24) ptr @_ZNK32pxrInternal_v0_24__pxrReserved__21UsdImagingPrimAdapter32GetExtComputationSceneInputNamesERKNS_7SdfPathE(ptr nocapture nonnull readnone align 8 %0, ptr nocapture nonnull readnone align 4 %1) unnamed_addr #15 align 2 {
  %3 = load atomic i8, ptr @_ZGVZNK32pxrInternal_v0_24__pxrReserved__21UsdImagingPrimAdapter32GetExtComputationSceneInputNamesERKNS_7SdfPathEE16emptyTokenVector acquire, align 8
  %4 = icmp eq i8 %3, 0
  br i1 %4, label %5, label %9, !prof !27

5:                                                ; preds = %2
  %6 = tail call i32 @__cxa_guard_acquire(ptr nonnull @_ZGVZNK32pxrInternal_v0_24__pxrReserved__21UsdImagingPrimAdapter32GetExtComputationSceneInputNamesERKNS_7SdfPathEE16emptyTokenVector) #30
  %.not = icmp eq i32 %6, 0
  br i1 %.not, label %9, label %7

7:                                                ; preds = %5
  tail call void @llvm.memset.p0.i64(ptr noundef nonnull align 8 dereferenceable(24) @_ZZNK32pxrInternal_v0_24__pxrReserved__21UsdImagingPrimAdapter32GetExtComputationSceneInputNamesERKNS_7SdfPathEE16emptyTokenVector, i8 0, i64 24, i1 false)
  %8 = tail call i32 @__cxa_atexit(ptr nonnull @_ZNSt6vectorIN32pxrInternal_v0_24__pxrReserved__7TfTokenESaIS1_EED2Ev, ptr nonnull @_ZZNK32pxrInternal_v0_24__pxrReserved__21UsdImagingPrimAdapter32GetExtComputationSceneInputNamesERKNS_7SdfPathEE16emptyTokenVector, ptr nonnull @__dso_handle) #30
  tail call void @__cxa_guard_release(ptr nonnull @_ZGVZNK32pxrInternal_v0_24__pxrReserved__21UsdImagingPrimAdapter32GetExtComputationSceneInputNamesERKNS_7SdfPathEE16emptyTokenVector) #30
  br label %9

9:                                                ; preds = %7, %5, %2
  ret ptr @_ZZNK32pxrInternal_v0_24__pxrReserved__21UsdImagingPrimAdapter32GetExtComputationSceneInputNamesERKNS_7SdfPathEE16emptyTokenVector
}